target datalayout = "e-m:e-p270:32:32-p271:32:32-p272:64:64-i64:64-i128:128-f80:128-n8:16:32:64-S128"
target triple = "x86_64-pc-linux-gnu"

%struct.ssl_ctx_st = type { ptr, ptr, ptr, ptr, ptr, ptr, ptr, i64, ptr, ptr, i32, %struct.OSSL_TIME, ptr, ptr, ptr, %struct.anon, %struct.CRYPTO_REF_COUNT, ptr, ptr, ptr, ptr, ptr, ptr, ptr, ptr, ptr, %struct.crypto_ex_data_st, ptr, ptr, ptr, ptr, ptr, ptr, ptr, i64, i32, i32, i32, i64, ptr, ptr, i32, ptr, ptr, i32, i64, [32 x i8], ptr, ptr, ptr, i32, ptr, ptr, ptr, i64, i64, i64, i64, ptr, ptr, ptr, ptr, ptr, %struct.anon.0, ptr, ptr, ptr, ptr, %struct.srp_ctx_st, %struct.dane_ctx_st, ptr, ptr, ptr, ptr, i32, i32, ptr, ptr, i64, i64, ptr, ptr, ptr, i64, ptr, ptr, i32, ptr, ptr, ptr, [14 x i32], [24 x ptr], [14 x ptr], [14 x i64], i64, ptr, ptr, ptr, i64, i64, ptr, i64, i64, i32, i32, i32, i32, ptr, i64, ptr, i64, i64, ptr, ptr }
%struct.OSSL_TIME = type { i64 }
%struct.anon = type { i32, i32, i32, i32, i32, i32, i32, i32, i32, i32, i32 }
%struct.CRYPTO_REF_COUNT = type { i32 }
%struct.crypto_ex_data_st = type { ptr, ptr }
%struct.anon.0 = type { ptr, ptr, [16 x i8], ptr, ptr, ptr, ptr, ptr, i32, i8, i64, ptr, i64, ptr, i64, ptr, i64, ptr, ptr, i64, ptr, ptr, ptr, i64, ptr, ptr, ptr, ptr, [32 x i8] }
%struct.srp_ctx_st = type { ptr, ptr, ptr, ptr, ptr, ptr, ptr, ptr, ptr, ptr, ptr, ptr, ptr, ptr, i32, i64 }
%struct.dane_ctx_st = type { ptr, ptr, i8, i64 }

; Function Attrs: nounwind uwtable
define ptr @BIO_f_ssl() #0 {
  ret ptr @methods_sslp
}

; Function Attrs: nounwind uwtable
define ptr @BIO_new_ssl(ptr noundef %0, i32 noundef %1) #0 {
  %3 = alloca ptr, align 8
  %4 = alloca ptr, align 8
  %5 = alloca i32, align 4
  %6 = alloca ptr, align 8
  %7 = alloca ptr, align 8
  %8 = alloca i32, align 4
  store ptr %0, ptr %4, align 8, !tbaa !3
  store i32 %1, ptr %5, align 4, !tbaa !47
  call void @llvm.lifetime.start.p0(i64 8, ptr %6) #5
  call void @llvm.lifetime.start.p0(i64 8, ptr %7) #5
  %9 = call ptr @BIO_f_ssl()
  %10 = call ptr @BIO_new(ptr noundef %9)
  store ptr %10, ptr %6, align 8, !tbaa !8
  %11 = icmp eq ptr %10, null
  br i1 %11, label %12, label %13

12:                                               ; preds = %2
  store ptr null, ptr %3, align 8
  store i32 1, ptr %8, align 4
  br label %32

13:                                               ; preds = %2
  %14 = load ptr, ptr %4, align 8, !tbaa !3
  %15 = call ptr @SSL_new(ptr noundef %14)
  store ptr %15, ptr %7, align 8, !tbaa !48
  %16 = icmp eq ptr %15, null
  br i1 %16, label %17, label %20

17:                                               ; preds = %13
  %18 = load ptr, ptr %6, align 8, !tbaa !8
  %19 = call i32 @BIO_free(ptr noundef %18)
  store ptr null, ptr %3, align 8
  store i32 1, ptr %8, align 4
  br label %32

20:                                               ; preds = %13
  %21 = load i32, ptr %5, align 4, !tbaa !47
  %22 = icmp ne i32 %21, 0
  br i1 %22, label %23, label %25

23:                                               ; preds = %20
  %24 = load ptr, ptr %7, align 8, !tbaa !48
  call void @SSL_set_connect_state(ptr noundef %24)
  br label %27

25:                                               ; preds = %20
  %26 = load ptr, ptr %7, align 8, !tbaa !48
  call void @SSL_set_accept_state(ptr noundef %26)
  br label %27

27:                                               ; preds = %25, %23
  %28 = load ptr, ptr %6, align 8, !tbaa !8
  %29 = load ptr, ptr %7, align 8, !tbaa !48
  %30 = call i64 @BIO_ctrl(ptr noundef %28, i32 noundef 109, i64 noundef 1, ptr noundef %29)
  %31 = load ptr, ptr %6, align 8, !tbaa !8
  store ptr %31, ptr %3, align 8
  store i32 1, ptr %8, align 4
  br label %32

32:                                               ; preds = %27, %17, %12
  call void @llvm.lifetime.end.p0(i64 8, ptr %7) #5
  call void @llvm.lifetime.end.p0(i64 8, ptr %6) #5
  %33 = load ptr, ptr %3, align 8
  ret ptr %33
}

; Function Attrs: nounwind uwtable
define ptr @BIO_new_ssl_connect(ptr noundef %0) #0 {
  %2 = alloca ptr, align 8
  %3 = alloca ptr, align 8
  %4 = alloca ptr, align 8
  %5 = alloca ptr, align 8
  %6 = alloca ptr, align 8
  %7 = alloca i32, align 4
  store ptr %0, ptr %3, align 8, !tbaa !3
  call void @llvm.lifetime.start.p0(i64 8, ptr %4) #5
  store ptr null, ptr %4, align 8, !tbaa !8
  call void @llvm.lifetime.start.p0(i64 8, ptr %5) #5
  store ptr null, ptr %5, align 8, !tbaa !8
  call void @llvm.lifetime.start.p0(i64 8, ptr %6) #5
  store ptr null, ptr %6, align 8, !tbaa !8
  %8 = call ptr @BIO_s_connect()
  %9 = call ptr @BIO_new(ptr noundef %8)
  store ptr %9, ptr %5, align 8, !tbaa !8
  %10 = icmp eq ptr %9, null
  br i1 %10, label %11, label %12

11:                                               ; preds = %1
  store ptr null, ptr %2, align 8
  store i32 1, ptr %7, align 4
  br label %57

12:                                               ; preds = %1
  %13 = load ptr, ptr %3, align 8, !tbaa !3
  %14 = icmp ne ptr %13, null
  br i1 %14, label %15, label %39

15:                                               ; preds = %12
  %16 = load ptr, ptr %3, align 8, !tbaa !3
  %17 = getelementptr inbounds nuw %struct.ssl_ctx_st, ptr %16, i32 0, i32 1
  %18 = load ptr, ptr %17, align 8, !tbaa !10
  %19 = call ptr @OSSL_QUIC_client_method()
  %20 = icmp eq ptr %18, %19
  br i1 %20, label %33, label %21

21:                                               ; preds = %15
  %22 = load ptr, ptr %3, align 8, !tbaa !3
  %23 = getelementptr inbounds nuw %struct.ssl_ctx_st, ptr %22, i32 0, i32 1
  %24 = load ptr, ptr %23, align 8, !tbaa !10
  %25 = call ptr @OSSL_QUIC_client_thread_method()
  %26 = icmp eq ptr %24, %25
  br i1 %26, label %33, label %27

27:                                               ; preds = %21
  %28 = load ptr, ptr %3, align 8, !tbaa !3
  %29 = getelementptr inbounds nuw %struct.ssl_ctx_st, ptr %28, i32 0, i32 1
  %30 = load ptr, ptr %29, align 8, !tbaa !10
  %31 = call ptr @OSSL_QUIC_server_method()
  %32 = icmp eq ptr %30, %31
  br i1 %32, label %33, label %39

33:                                               ; preds = %27, %21, %15
  %34 = load ptr, ptr %5, align 8, !tbaa !8
  %35 = call i64 @BIO_ctrl(ptr noundef %34, i32 noundef 157, i64 noundef 2, ptr noundef null)
  %36 = icmp ne i64 %35, 0
  br i1 %36, label %38, label %37

37:                                               ; preds = %33
  br label %52

38:                                               ; preds = %33
  br label %39

39:                                               ; preds = %38, %27, %12
  %40 = load ptr, ptr %3, align 8, !tbaa !3
  %41 = call ptr @BIO_new_ssl(ptr noundef %40, i32 noundef 1)
  store ptr %41, ptr %6, align 8, !tbaa !8
  %42 = icmp eq ptr %41, null
  br i1 %42, label %43, label %44

43:                                               ; preds = %39
  br label %52

44:                                               ; preds = %39
  %45 = load ptr, ptr %6, align 8, !tbaa !8
  %46 = load ptr, ptr %5, align 8, !tbaa !8
  %47 = call ptr @BIO_push(ptr noundef %45, ptr noundef %46)
  store ptr %47, ptr %4, align 8, !tbaa !8
  %48 = icmp eq ptr %47, null
  br i1 %48, label %49, label %50

49:                                               ; preds = %44
  br label %52

50:                                               ; preds = %44
  %51 = load ptr, ptr %4, align 8, !tbaa !8
  store ptr %51, ptr %2, align 8
  store i32 1, ptr %7, align 4
  br label %57

52:                                               ; preds = %49, %43, %37
  %53 = load ptr, ptr %6, align 8, !tbaa !8
  %54 = call i32 @BIO_free(ptr noundef %53)
  %55 = load ptr, ptr %5, align 8, !tbaa !8
  %56 = call i32 @BIO_free(ptr noundef %55)
  store ptr null, ptr %2, align 8
  store i32 1, ptr %7, align 4
  br label %57

57:                                               ; preds = %52, %50, %11
  call void @llvm.lifetime.end.p0(i64 8, ptr %6) #5
  call void @llvm.lifetime.end.p0(i64 8, ptr %5) #5
  call void @llvm.lifetime.end.p0(i64 8, ptr %4) #5
  %58 = load ptr, ptr %2, align 8
  ret ptr %58
}