; Function Attrs: nounwind uwtable
define ptr @BIO_new_ssl_connect(ptr noundef %0) local_unnamed_addr #1 {
  %2 = tail call ptr @BIO_s_connect() #5
  %3 = tail call ptr @BIO_new(ptr noundef %2) #5
  %4 = icmp eq ptr %3, null
  br i1 %4, label %35, label %5

5:                                                ; preds = %1
  %.not = icmp eq ptr %0, null
  br i1 %.not, label %21, label %6

6:                                                ; preds = %5
  %7 = getelementptr inbounds nuw i8, ptr %0, i64 8
  %8 = load ptr, ptr %7, align 8, !tbaa !3
  %9 = tail call ptr @OSSL_QUIC_client_method() #5
  %10 = icmp eq ptr %8, %9
  br i1 %10, label %19, label %11

11:                                               ; preds = %6
  %12 = load ptr, ptr %7, align 8, !tbaa !3
  %13 = tail call ptr @OSSL_QUIC_client_thread_method() #5
  %14 = icmp eq ptr %12, %13
  br i1 %14, label %19, label %15

15:                                               ; preds = %11
  %16 = load ptr, ptr %7, align 8, !tbaa !3
  %17 = tail call ptr @OSSL_QUIC_server_method() #5
  %18 = icmp eq ptr %16, %17
  br i1 %18, label %19, label %21

19:                                               ; preds = %15, %11, %6
  %20 = tail call i64 @BIO_ctrl(ptr noundef nonnull %3, i32 noundef 157, i64 noundef 2, ptr noundef null) #5
  %.not17 = icmp eq i64 %20, 0
  br i1 %.not17, label %BIO_new_ssl.exit.thread, label %21

21:                                               ; preds = %19, %15, %5
  %22 = tail call ptr @BIO_new(ptr noundef nonnull @methods_sslp) #5
  %23 = icmp eq ptr %22, null
  br i1 %23, label %BIO_new_ssl.exit.thread, label %24

24:                                               ; preds = %21
  %25 = tail call ptr @SSL_new(ptr noundef %0) #5
  %26 = icmp eq ptr %25, null
  br i1 %26, label %27, label %29

27:                                               ; preds = %24
  %28 = tail call i32 @BIO_free(ptr noundef nonnull %22) #5
  br label %BIO_new_ssl.exit.thread

29:                                               ; preds = %24
  tail call void @SSL_set_connect_state(ptr noundef nonnull %25) #5
  %30 = tail call i64 @BIO_ctrl(ptr noundef nonnull %22, i32 noundef 109, i64 noundef 1, ptr noundef nonnull %25) #5
  %31 = tail call ptr @BIO_push(ptr noundef nonnull %22, ptr noundef nonnull %3) #5
  %32 = icmp eq ptr %31, null
  br i1 %32, label %BIO_new_ssl.exit.thread, label %35

BIO_new_ssl.exit.thread:                          ; preds = %21, %27, %29, %19
  %.0 = phi ptr [ %22, %29 ], [ null, %19 ], [ null, %27 ], [ null, %21 ]
  %33 = tail call i32 @BIO_free(ptr noundef %.0) #5
  %34 = tail call i32 @BIO_free(ptr noundef nonnull %3) #5
  br label %35

35:                                               ; preds = %29, %1, %BIO_new_ssl.exit.thread
  %.012 = phi ptr [ null, %BIO_new_ssl.exit.thread ], [ null, %1 ], [ %31, %29 ]
  ret ptr %.012
}